; Function Attrs: mustprogress uwtable
define dso_local void @_ZN5vcpkg4Test14PackageSpecMap7emplaceEPKcS3_RKSt6vectorISt4pairIS3_S3_ESaIS6_EERKS4_IS3_SaIS3_EE(ptr dead_on_unwind noalias writable sret(%"struct.vcpkg::PackageSpec") align 8 %0, ptr noundef nonnull align 8 dereferenceable(64) %1, ptr noundef %2, ptr noundef %3, ptr noundef nonnull readonly align 8 captures(none) dereferenceable(24) %4, ptr noundef nonnull readonly align 8 captures(none) dereferenceable(24) %5) local_unnamed_addr #4 align 2 personality ptr @__gxx_personality_v0 {
  %7 = alloca %"struct.vcpkg::SourceControlFileAndLocation", align 8
  call void @llvm.lifetime.start.p0(i64 72, ptr nonnull %7) #21
  call void @_ZN5vcpkg4Test17make_control_fileEPKcS2_RKSt6vectorISt4pairIS2_S2_ESaIS5_EERKS3_IS2_SaIS2_EE(ptr dead_on_unwind nonnull writable sret(%"class.std::unique_ptr") align 8 %7, ptr noundef %2, ptr noundef %3, ptr noundef nonnull align 8 dereferenceable(24) %4, ptr noundef nonnull align 8 dereferenceable(24) %5)
  %8 = getelementptr inbounds nuw i8, ptr %7, i64 8
  invoke void @_ZN5vcpkg4PathC1EPKc(ptr noundef nonnull align 8 dereferenceable(32) %8, ptr noundef nonnull @.str.44)
          to label %9 unwind label %29

9:                                                ; preds = %6
  %10 = getelementptr inbounds nuw i8, ptr %7, i64 40
  %11 = getelementptr inbounds nuw i8, ptr %7, i64 56
  store ptr %11, ptr %10, align 8, !tbaa !18
  %12 = getelementptr inbounds nuw i8, ptr %7, i64 48
  store i64 0, ptr %12, align 8, !tbaa !21
  store i8 0, ptr %11, align 8, !tbaa !24
  invoke void @_ZN5vcpkg4Test14PackageSpecMap7emplaceEONS_28SourceControlFileAndLocationE(ptr dead_on_unwind writable sret(%"struct.vcpkg::PackageSpec") align 8 %0, ptr noundef nonnull align 8 dereferenceable(64) %1, ptr noundef nonnull align 8 dereferenceable(72) %7)
          to label %13 unwind label %31

13:                                               ; preds = %9
  %14 = load ptr, ptr %10, align 8, !tbaa !25
  %15 = icmp eq ptr %14, %11
  br i1 %15, label %_ZNKSt7__cxx1112basic_stringIcSt11char_traitsIcESaIcEE11_M_is_localEv.exit.thread.i.i.i, label %_ZNKSt7__cxx1112basic_stringIcSt11char_traitsIcESaIcEE11_M_is_localEv.exit.i.i.i

_ZNKSt7__cxx1112basic_stringIcSt11char_traitsIcESaIcEE11_M_is_localEv.exit.thread.i.i.i: ; preds = %13
  %16 = load i64, ptr %12, align 8, !tbaa !21
  %17 = icmp ult i64 %16, 16
  call void @llvm.assume(i1 %17)
  br label %_ZNSt7__cxx1112basic_stringIcSt11char_traitsIcESaIcEED2Ev.exit.i

_ZNKSt7__cxx1112basic_stringIcSt11char_traitsIcESaIcEE11_M_is_localEv.exit.i.i.i: ; preds = %13
  %18 = load i64, ptr %11, align 8, !tbaa !24
  %19 = add i64 %18, 1
  call void @_ZdlPvm(ptr noundef %14, i64 noundef %19) #22
  br label %_ZNSt7__cxx1112basic_stringIcSt11char_traitsIcESaIcEED2Ev.exit.i

_ZNSt7__cxx1112basic_stringIcSt11char_traitsIcESaIcEED2Ev.exit.i: ; preds = %_ZNKSt7__cxx1112basic_stringIcSt11char_traitsIcESaIcEE11_M_is_localEv.exit.i.i.i, %_ZNKSt7__cxx1112basic_stringIcSt11char_traitsIcESaIcEE11_M_is_localEv.exit.thread.i.i.i
  %20 = load ptr, ptr %8, align 8, !tbaa !25
  %21 = getelementptr inbounds nuw i8, ptr %7, i64 24
  %22 = icmp eq ptr %20, %21
  br i1 %22, label %_ZNKSt7__cxx1112basic_stringIcSt11char_traitsIcESaIcEE11_M_is_localEv.exit.thread.i.i.i.i, label %_ZNKSt7__cxx1112basic_stringIcSt11char_traitsIcESaIcEE11_M_is_localEv.exit.i.i.i.i

_ZNKSt7__cxx1112basic_stringIcSt11char_traitsIcESaIcEE11_M_is_localEv.exit.thread.i.i.i.i: ; preds = %_ZNSt7__cxx1112basic_stringIcSt11char_traitsIcESaIcEED2Ev.exit.i
  %23 = getelementptr inbounds nuw i8, ptr %7, i64 16
  %24 = load i64, ptr %23, align 8, !tbaa !21
  %25 = icmp ult i64 %24, 16
  call void @llvm.assume(i1 %25)
  br label %_ZN5vcpkg4PathD2Ev.exit.i

_ZNKSt7__cxx1112basic_stringIcSt11char_traitsIcESaIcEE11_M_is_localEv.exit.i.i.i.i: ; preds = %_ZNSt7__cxx1112basic_stringIcSt11char_traitsIcESaIcEED2Ev.exit.i
  %26 = load i64, ptr %21, align 8, !tbaa !24
  %27 = add i64 %26, 1
  call void @_ZdlPvm(ptr noundef %20, i64 noundef %27) #22
  br label %_ZN5vcpkg4PathD2Ev.exit.i

_ZN5vcpkg4PathD2Ev.exit.i:                        ; preds = %_ZNKSt7__cxx1112basic_stringIcSt11char_traitsIcESaIcEE11_M_is_localEv.exit.i.i.i.i, %_ZNKSt7__cxx1112basic_stringIcSt11char_traitsIcESaIcEE11_M_is_localEv.exit.thread.i.i.i.i
  %28 = load ptr, ptr %7, align 8, !tbaa !79
  %.not.i.i = icmp eq ptr %28, null
  br i1 %.not.i.i, label %_ZN5vcpkg28SourceControlFileAndLocationD2Ev.exit, label %_ZNKSt14default_deleteIN5vcpkg17SourceControlFileEEclEPS1_.exit.i.i

_ZNKSt14default_deleteIN5vcpkg17SourceControlFileEEclEPS1_.exit.i.i: ; preds = %_ZN5vcpkg4PathD2Ev.exit.i
  call void @_ZN5vcpkg17SourceControlFileD2Ev(ptr noundef nonnull align 8 dereferenceable(56) %28) #21
  call void @_ZdlPvm(ptr noundef nonnull %28, i64 noundef 56) #22
  br label %_ZN5vcpkg28SourceControlFileAndLocationD2Ev.exit

_ZN5vcpkg28SourceControlFileAndLocationD2Ev.exit: ; preds = %_ZN5vcpkg4PathD2Ev.exit.i, %_ZNKSt14default_deleteIN5vcpkg17SourceControlFileEEclEPS1_.exit.i.i
  call void @llvm.lifetime.end.p0(i64 72, ptr nonnull %7) #21
  ret void

29:                                               ; preds = %6
  %30 = landingpad { ptr, i32 }
          cleanup
  call void @_ZNSt10unique_ptrIN5vcpkg17SourceControlFileESt14default_deleteIS1_EED2Ev(ptr noundef nonnull align 8 dereferenceable(8) %7) #21
  br label %33

31:                                               ; preds = %9
  %32 = landingpad { ptr, i32 }
          cleanup
  call void @_ZN5vcpkg28SourceControlFileAndLocationD2Ev(ptr noundef nonnull align 8 dereferenceable(72) %7) #21
  br label %33

33:                                               ; preds = %31, %29
  %.pn = phi { ptr, i32 } [ %32, %31 ], [ %30, %29 ]
  call void @llvm.lifetime.end.p0(i64 72, ptr nonnull %7) #21
  resume { ptr, i32 } %.pn
}